; ModuleID = 'bench/openjdk/original/EventFD.ll'
source_filename = "bench/openjdk/original/EventFD.ll"
target datalayout = "e-m:e-p270:32:32-p271:32:32-p272:64:64-i64:64-i128:128-f80:128-n8:16:32:64-S128"
target triple = "x86_64-pc-linux-gnu"

@.str = private unnamed_addr constant [15 x i8] c"eventfd failed\00", align 1

; Function Attrs: nounwind uwtable
define range(i32 0, -1) i32 @Java_sun_nio_ch_EventFD_eventfd0(ptr noundef %0, ptr nocapture noundef readnone %1) local_unnamed_addr #0 {
  %3 = tail call i32 @eventfd(i32 noundef 0, i32 noundef 0) #4
  %4 = icmp eq i32 %3, -1
  br i1 %4, label %5, label %6

5:                                                ; preds = %2
  tail call void @JNU_ThrowIOExceptionWithLastError(ptr noundef %0, ptr noundef nonnull @.str) #4
  br label %6

6:                                                ; preds = %2, %5
  %.0 = phi i32 [ -5, %5 ], [ %3, %2 ]
  ret i32 %.0
}

; Function Attrs: nounwind
declare i32 @eventfd(i32 noundef, i32 noundef) local_unnamed_addr #1

declare void @JNU_ThrowIOExceptionWithLastError(ptr noundef, ptr noundef) local_unnamed_addr #2

; Function Attrs: nounwind uwtable
define i32 @Java_sun_nio_ch_EventFD_set0(ptr noundef %0, ptr nocapture noundef readnone %1, i32 noundef %2) local_unnamed_addr #0 {
  %4 = alloca i64, align 8
  store i64 1, ptr %4, align 8
  %5 = call i64 @write(i32 noundef %2, ptr noundef nonnull %4, i64 noundef 8) #4
  %6 = trunc i64 %5 to i32
  %7 = tail call i32 @convertReturnVal(ptr noundef %0, i32 noundef %6, i8 noundef zeroext 0) #4
  ret i32 %7
}

declare i32 @convertReturnVal(ptr noundef, i32 noundef, i8 noundef zeroext) local_unnamed_addr #2

; Function Attrs: nofree
declare noundef i64 @write(i32 noundef, ptr nocapture noundef readonly, i64 noundef) local_unnamed_addr #3


!llvm.module.flags = !{!0, !1, !2, !3, !4, !5}

!0 = !{i32 7, !"Dwarf Version", i32 5}
!1 = !{i32 2, !"Debug Info Version", i32 3}
!2 = !{i32 1, !"wchar_size", i32 4}
!3 = !{i32 8, !"PIC Level", i32 2}
!4 = !{i32 7, !"uwtable", i32 2}
!5 = !{i32 7, !"frame-pointer", i32 2}
